; Function Attrs: mustprogress uwtable
define void @_ZNK6icu_776number4impl19NumberFormatterImpl10preProcessERNS1_15DecimalQuantityERNS1_10MicroPropsER10UErrorCode(ptr noundef nonnull readonly align 8 captures(none) dereferenceable(600) %0, ptr noundef nonnull align 8 dereferenceable(66) %1, ptr noundef nonnull align 8 dereferenceable(489) %2, ptr noundef nonnull align 4 dereferenceable(4) %3) local_unnamed_addr #1 align 2 {
  %5 = load i32, ptr %3, align 4, !tbaa !13
  %6 = icmp slt i32 %5, 1
  br i1 %6, label %7, label %16

7:                                                ; preds = %4
  %8 = load ptr, ptr %0, align 8, !tbaa !15
  %9 = icmp eq ptr %8, null
  br i1 %9, label %10, label %11

10:                                               ; preds = %7
  store i32 5, ptr %3, align 4, !tbaa !13
  br label %16

11:                                               ; preds = %7
  %12 = load ptr, ptr %8, align 8, !tbaa !93
  %13 = getelementptr inbounds nuw i8, ptr %12, i64 16
  %14 = load ptr, ptr %13, align 8
  tail call void %14(ptr noundef nonnull align 8 dereferenceable(8) %8, ptr noundef nonnull align 8 dereferenceable(66) %1, ptr noundef nonnull align 8 dereferenceable(489) %2, ptr noundef nonnull align 4 dereferenceable(4) %3)
  %15 = getelementptr inbounds nuw i8, ptr %2, i64 156
  tail call void @_ZNK6icu_776number12IntegerWidth5applyERNS0_4impl15DecimalQuantityER10UErrorCode(ptr noundef nonnull align 4 dereferenceable(9) %15, ptr noundef nonnull align 8 dereferenceable(66) %1, ptr noundef nonnull align 4 dereferenceable(4) %3)
  br label %16

16:                                               ; preds = %4, %11, %10
  ret void
}